(dp0
S'mu'
p1
(lp2
F0.00135044575
aF4.0167323101268834e-05
asS'tau'
p3
(lp4
F0.00023484251592500001
aF7.005953147361496e-06
asS'Hc'
p5
(lp6
F0.00017265916889999997
aF4.351555770797242e-05
asS'JPsiKst'
p7
(lp8
F7.570470000000001e-05
aF3.0098309540597165e-06
asS'Dstst'
p9
(lp10
F0.00018023771000000004
aF0.00011185581682182656
as.