(dp0
S'mu'
p1
F0.00135044575
sS'tau'
p2
F0.00023484251592500001
sS'Hc'
p3
F0.00017265916889999997
sS'JPsiKst'
p4
(lp5
F7.570470000000001e-05
aF3.0098309540597165e-06
asS'Dstst'
p6
F0.00018023771000000004
s.