(dp0
S'DstmD0'
p1
(lp2
F5.873503060000002e-05
aF5.221014570742719e-06
asS'tau'
p3
(lp4
cnumpy.core.multiarray
scalar
p5
(cnumpy
dtype
p6
(S'f8'
p7
I0
I1
tp8
Rp9
(I3
S'<'
p10
NNNI-1
I-1
I0
tp11
bS'\x8eR\xe9\xd9\x01\xc8.?'
p12
tp13
Rp14
ag5
(g9
S']T\xbf\xbc\x95b\xdd>'
p15
tp16
Rp17
asS'TauDstPip'
p18
(lp19
g5
(g9
S'E\xd2\xbci\xe8A\xcd>'
p20
tp21
Rp22
ag5
(g9
S'*\x15\x8e\xcf\xaa\xb4\xa8>'
p23
tp24
Rp25
asS'BmDstmHc'
p26
(lp27
g5
(g9
S'M\x8ft\xa2X\xa2\xff>'
p28
tp29
Rp30
ag5
(g9
S'\xaf\xda+\xcbZ,\xd9>'
p31
tp32
Rp33
asS'DstmDp'
p34
(lp35
F5.8360649599999995e-05
aF1.0629651201385458e-05
asS'DstPiPiPi'
p36
(lp37
g5
(g9
S'\xd1H\xce\xf8lL\x00?'
p38
tp39
Rp40
ag5
(g9
S'\xf1\x12\x0f\xed\xe2y\x02?'
p41
tp42
Rp43
asS'DstPipPi0'
p44
(lp45
g5
(g9
S'\x852\xa9\x94\xa4\xe7\xda>'
p46
tp47
Rp48
ag5
(g9
S'\x80\xadeg%\x8fx>'
p49
tp50
Rp51
asS'TauDstPi0'
p52
(lp53
g5
(g9
S'E\xd2\xbci\xe8A\xbd>'
p54
tp55
Rp56
ag5
(g9
S'*\x15\x8e\xcf\xaa\xb4\x98>'
p57
tp58
Rp59
asS'DstPi0'
p60
(lp61
g5
(g9
S'\x00\x7fTj\xc6\x07\x05?'
p62
tp63
Rp64
ag5
(g9
S'\xe4\xd8\x83\xc3=\xb9\xc6>'
p65
tp66
Rp67
asS'antiB0DstmHc'
p68
(lp69
g5
(g9
S'\xc1\x13\xe3@4\xca\x03?'
p70
tp71
Rp72
ag5
(g9
S')\x84\x9c\xed\x9dZ\xde>'
p73
tp74
Rp75
asS'mu'
p76
(lp77
g5
(g9
S'H\x903\x15. F?'
p78
tp79
Rp80
ag5
(g9
S'\x1d\xacs\xb6*\x0f\xf5>'
p81
tp82
Rp83
asS'D*-_antiD0pi-'
p84
(lp85
F0.677
aF0.005
asS'JPsiKst'
p86
(lp87
F7.570470000000001e-05
aF3.0098309540597165e-06
asS'DstmDsp'
p88
(lp89
F5.1407859600000004e-05
aF5.738788813012919e-06
asS'DstPip'
p90
(lp91
g5
(g9
S'\x00\x7fTj\xc6\x07\x15?'
p92
tp93
Rp94
ag5
(g9
S'\xe4\xd8\x83\xc3=\xb9\xd6>'
p95
tp96
Rp97
asS'DstPipPim'
p98
(lp99
g5
(g9
S'\x852\xa9\x94\xa4\xe7\xea>'
p100
tp101
Rp102
ag5
(g9
S'\x80\xadeg%\x8f\x88>'
p103
tp104
Rp105
asS'Hc'
p106
(lp107
F0.00017265916889999997
aF4.351555770797242e-05
asS'BpDstmHc'
p108
(lp109
g5
(g9
S'\xe0\x08\x91jvp\xdb>'
p110
tp111
Rp112
ag5
(g9
S'\xca\xd6z\xb7\xb0\x17\xb8>'
p113
tp114
Rp115
asS'DstPi0Pi0'
p116
(lp117
g5
(g9
S'\x852\xa9\x94\xa4\xe7\xca>'
p118
tp119
Rp120
ag5
(g9
S'\x80\xadeg%\x8fh>'
p121
tp122
Rp123
asS'antiD0_K+pi-'
p124
(lp125
F0.0395
aF0.00031
as.