(dp0
S'tau'
p1
(lp2
F0.00023484251592500001
aF7.005953147361496e-06
asS'DstPipPi0'
p3
(lp4
F1.06966e-05
aF6.686368757205139e-06
asS'DstPi0'
p5
(lp6
F8.02245e-05
aF2.6755472099219256e-05
asS'JPsiKst'
p7
(lp8
F7.570470000000001e-05
aF3.0098309540597165e-06
asS'mu'
p9
(lp10
F0.00135044575
aF4.0167323101268834e-05
asS'D*-_antiD0pi-'
p11
(lp12
F0.677
aF0.005
asS'DstPip'
p13
(lp14
F0.00018023771000000004
aF1.819357516720852e-05
asS'DstPipPim'
p15
(lp16
F3.74381e-05
aF1.3376835830256123e-05
asS'Hc'
p17
(lp18
F0.00017265916889999997
aF4.351555770797242e-05
asS'DstPi0Pi0'
p19
(lp20
F9.359525e-06
aF3.4778579650727903e-06
asS'antiD0_K+pi-'
p21
(lp22
F0.0395
aF0.00031
as.