(dp0
S'tau'
p1
(lp2
F0.00023484251592500001
aF7.005953147361496e-06
asS'DstmD0'
p3
(lp4
F5.873503060000002e-05
aF5.221014570742719e-06
asS'DstmDp'
p5
(lp6
F5.8360649599999995e-05
aF1.0629651201385458e-05
asS'DstPipPi0'
p7
(lp8
F1.06966e-05
aF6.686368757205139e-06
asS'DstPi0'
p9
(lp10
F8.02245e-05
aF2.6755472099219256e-05
asS'JPsiKst'
p11
(lp12
F7.570470000000001e-05
aF3.0098309540597165e-06
asS'mu'
p13
(lp14
F0.00135044575
aF4.0167323101268834e-05
asS'D*-_antiD0pi-'
p15
(lp16
F0.677
aF0.005
asS'DstmDsp'
p17
(lp18
F5.1407859600000004e-05
aF5.738788813012919e-06
asS'DstPip'
p19
(lp20
F0.00018023771000000004
aF1.819357516720852e-05
asS'DstPipPim'
p21
(lp22
F3.74381e-05
aF1.3376835830256123e-05
asS'Hc'
p23
(lp24
F0.00017265916889999997
aF4.351555770797242e-05
asS'DstPi0Pi0'
p25
(lp26
F9.359525e-06
aF3.4778579650727903e-06
asS'antiD0_K+pi-'
p27
(lp28
F0.0395
aF0.00031
as.