(dp0
S'DstmD0'
p1
(lp2
F5.873503060000002e-05
aF5.221014570742719e-06
asS'tau'
p3
(lp4
cnumpy.core.multiarray
scalar
p5
(cnumpy
dtype
p6
(S'f8'
p7
I0
I1
tp8
Rp9
(I3
S'<'
p10
NNNI-1
I-1
I0
tp11
bS'\x8eR\xe9\xd9\x01\xc8.?'
p12
tp13
Rp14
ag5
(g9
S']T\xbf\xbc\x95b\xdd>'
p15
tp16
Rp17
asS'TauDstPip'
p18
(lp19
g5
(g9
S'E\xd2\xbci\xe8A\xdd>'
p20
tp21
Rp22
ag5
(g9
S'*\x15\x8e\xcf\xaa\xb4\xb8>'
p23
tp24
Rp25
asS'BmDstmHc'
p26
(lp27
g5
(g9
S'\x18wl\xdd0L\x01?'
p28
tp29
Rp30
ag5
(g9
S'\xc1\xc1.m\xf7\xc9\xe0>'
p31
tp32
Rp33
asS'DstmDp'
p34
(lp35
F5.8360649599999995e-05
aF1.0629651201385458e-05
asS'JPsiK'
p36
(lp37
F5.961000000000001e-05
aF2.99871902377015e-06
asS'DstPipPi0'
p38
(lp39
g5
(g9
S'\x852\xa9\x94\xa4\xe7\xea>'
p40
tp41
Rp42
ag5
(g9
S'\x075\x1bIh4\xd2>'
p43
tp44
Rp45
asS'TauDstPi0'
p46
(lp47
g5
(g9
S'E\xd2\xbci\xe8A\xcd>'
p48
tp49
Rp50
ag5
(g9
S'*\x15\x8e\xcf\xaa\xb4\xa8>'
p51
tp52
Rp53
asS'DstPi0'
p54
(lp55
g5
(g9
S'\x00\x7fTj\xc6\x07\x15?'
p56
tp57
Rp58
ag5
(g9
S'\xe4\xd8\x83\xc3=\xb9\xd6>'
p59
tp60
Rp61
asS'antiB0DstmHc'
p62
(lp63
g5
(g9
S'\xc1\x13\xe3@4\xca\x03?'
p64
tp65
Rp66
ag5
(g9
S')\x84\x9c\xed\x9dZ\xde>'
p67
tp68
Rp69
asS'mu'
p70
(lp71
g5
(g9
S'H\x903\x15. V?'
p72
tp73
Rp74
ag5
(g9
S'\x1d\xacs\xb6*\x0f\x05?'
p75
tp76
Rp77
asS'D*-_antiD0pi-'
p78
(lp79
F0.677
aF0.005
asS'JPsiKst'
p80
(lp81
F7.570470000000001e-05
aF3.0098309540597165e-06
asS'DstmDsp'
p82
(lp83
F5.1407859600000004e-05
aF5.738788813012919e-06
asS'DstPip'
p84
(lp85
g5
(g9
S'\x00\x7fTj\xc6\x07%?'
p86
tp87
Rp88
ag5
(g9
S'\xe4\xd8\x83\xc3=\xb9\xe6>'
p89
tp90
Rp91
asS'DstPipPim'
p92
(lp93
g5
(g9
S'\x852\xa9\x94\xa4\xe7\xfa>'
p94
tp95
Rp96
ag5
(g9
S'\x075\x1bIh4\xe2>'
p97
tp98
Rp99
asS'Hc'
p100
(lp101
F0.00017265916889999997
aF4.351555770797242e-05
asS'BpDstmHc'
p102
(lp103
g5
(g9
S'\xe0\x08\x91jvp\xdb>'
p104
tp105
Rp106
ag5
(g9
S'\xca\xd6z\xb7\xb0\x17\xb8>'
p107
tp108
Rp109
asS'DstPi0Pi0'
p110
(lp111
g5
(g9
S'\x852\xa9\x94\xa4\xe7\xda>'
p112
tp113
Rp114
ag5
(g9
S'\x075\x1bIh4\xc2>'
p115
tp116
Rp117
asS'antiD0_K+pi-'
p118
(lp119
F0.0395
aF0.00031
as.