(dp0
S'tau'
p1
(lp2
cnumpy.core.multiarray
scalar
p3
(cnumpy
dtype
p4
(S'f8'
p5
I0
I1
tp6
Rp7
(I3
S'<'
p8
NNNI-1
I-1
I0
tp9
bS'\x8eR\xe9\xd9\x01\xc8.?'
p10
tp11
Rp12
ag3
(g7
S']T\xbf\xbc\x95b\xdd>'
p13
tp14
Rp15
asS'DstmD0'
p16
(lp17
F5.873503060000002e-05
aF5.221014570742719e-06
asS'BmDstmHc'
p18
(lp19
g3
(g7
S'\x18wl\xdd0L\x01?'
p20
tp21
Rp22
ag3
(g7
S'\xc1\xc1.m\xf7\xc9\xe0>'
p23
tp24
Rp25
asS'DstPipPi0'
p26
(lp27
g3
(g7
S'\x852\xa9\x94\xa4\xe7\xda>'
p28
tp29
Rp30
ag3
(g7
S'\x80\xadeg%\x8fx>'
p31
tp32
Rp33
asS'DstPipPim'
p34
(lp35
g3
(g7
S'\x852\xa9\x94\xa4\xe7\xea>'
p36
tp37
Rp38
ag3
(g7
S'\x80\xadeg%\x8f\x88>'
p39
tp40
Rp41
asS'TauDstPip'
p42
(lp43
g3
(g7
S'E\xd2\xbci\xe8A\xcd>'
p44
tp45
Rp46
ag3
(g7
S'*\x15\x8e\xcf\xaa\xb4\xa8>'
p47
tp48
Rp49
asS'B0DstPiPiPi'
p50
(lp51
g3
(g7
S'\x17ah\xf6;\xbb\xe5>'
p52
tp53
Rp54
ag3
(g7
S'\xec\xc3\xbe\xe6\x83\xa2\xe8>'
p55
tp56
Rp57
asS'JPsiK'
p58
(lp59
F5.961000000000001e-05
aF2.99871902377015e-06
asS'DstPi0'
p60
(lp61
g3
(g7
S'\x00\x7fTj\xc6\x07\x05?'
p62
tp63
Rp64
ag3
(g7
S'\xe4\xd8\x83\xc3=\xb9\xc6>'
p65
tp66
Rp67
asS'D*-_antiD0pi-'
p68
(lp69
F0.677
aF0.005
asS'Hc'
p70
(lp71
F0.00017265916889999997
aF4.351555770797242e-05
asS'antiD0_K+pi-'
p72
(lp73
F0.0395
aF0.00031
asS'DstmDp'
p74
(lp75
F5.8360649599999995e-05
aF1.0629651201385458e-05
asS'DstPi0Pi0'
p76
(lp77
g3
(g7
S'\x852\xa9\x94\xa4\xe7\xca>'
p78
tp79
Rp80
ag3
(g7
S'\x80\xadeg%\x8fh>'
p81
tp82
Rp83
asS'antiB0DstmHc'
p84
(lp85
g3
(g7
S'\xc1\x13\xe3@4\xca\x03?'
p86
tp87
Rp88
ag3
(g7
S')\x84\x9c\xed\x9dZ\xde>'
p89
tp90
Rp91
asS'TauDstPi0'
p92
(lp93
g3
(g7
S'E\xd2\xbci\xe8A\xbd>'
p94
tp95
Rp96
ag3
(g7
S'*\x15\x8e\xcf\xaa\xb4\x98>'
p97
tp98
Rp99
asS'BpDstmHc'
p100
(lp101
g3
(g7
S'\xe0\x08\x91jvp\xdb>'
p102
tp103
Rp104
ag3
(g7
S'\xca\xd6z\xb7\xb0\x17\xb8>'
p105
tp106
Rp107
asS'BpDstPiPiPi'
p108
(lp109
g3
(g7
S'\xdd{\xab}\x16\x1b\xdb\xbe'
p110
tp111
Rp112
ag3
(g7
S'3\x93\x11*?i\xd8\xbe'
p113
tp114
Rp115
asS'DstPip'
p116
(lp117
g3
(g7
S'\x00\x7fTj\xc6\x07\x15?'
p118
tp119
Rp120
ag3
(g7
S'\xe4\xd8\x83\xc3=\xb9\xd6>'
p121
tp122
Rp123
asS'JPsiKst'
p124
(lp125
F5.996766e-05
aF1.643362517067509e-06
asS'mu'
p126
(lp127
g3
(g7
S'H\x903\x15. F?'
p128
tp129
Rp130
ag3
(g7
S'\x1d\xacs\xb6*\x0f\xf5>'
p131
tp132
Rp133
asS'DstmDsp'
p134
(lp135
F5.1407859600000004e-05
aF5.738788813012919e-06
as.