(dp0
S'tau'
p1
(lp2
F0.00023484251592500001
aF7.005953147361496e-06
asS'DstmD0'
p3
(lp4
F5.873503060000002e-05
aF5.221014570742719e-06
asS'BmDstmHc'
p5
(lp6
F3.016869064e-05
aF6.001772976152688e-06
asS'DstmDp'
p7
(lp8
F5.8360649599999995e-05
aF1.0629651201385458e-05
asS'DstPipPi0'
p9
(lp10
F1.871905e-05
aF6.688417915128061e-06
asS'DstPi0'
p11
(lp12
F8.02245e-05
aF2.6755472099219256e-05
asS'antiB0DstmHc'
p13
(lp14
F3.7746162079999996e-05
aF7.236950944095946e-06
asS'mu'
p15
(lp16
F0.00135044575
aF4.0167323101268834e-05
asS'D*-_antiD0pi-'
p17
(lp18
F0.677
aF0.005
asS'JPsiKst'
p19
(lp20
F7.570470000000001e-05
aF3.0098309540597165e-06
asS'DstmDsp'
p21
(lp22
F5.1407859600000004e-05
aF5.738788813012919e-06
asS'DstPip'
p23
(lp24
F0.000160449
aF1.0835456223362264e-05
asS'DstPipPim'
p25
(lp26
F3.74381e-05
aF1.3376835830256123e-05
asS'Hc'
p27
(lp28
F0.00017265916889999997
aF4.351555770797242e-05
asS'BpDstmHc'
p29
(lp30
F6.542040559999999e-06
aF1.4360273023322631e-06
asS'DstPi0Pi0'
p31
(lp32
F9.359525e-06
aF3.4778579650727903e-06
asS'antiD0_K+pi-'
p33
(lp34
F0.0395
aF0.00031
as.