(dp0
S'JPsiKst'
p1
(dp2
S'TotCand'
p3
cnumpy.core.multiarray
scalar
p4
(cnumpy
dtype
p5
(S'i8'
p6
I0
I1
tp7
Rp8
(I3
S'<'
p9
NNNI-1
I-1
I0
tp10
bS'\xf7\t\t\x00\x00\x00\x00\x00'
p11
tp12
Rp13
sS'xsec'
p14
g4
(g5
(S'f8'
p15
I0
I1
tp16
Rp17
(I3
S'<'
p18
NNNI-1
I-1
I0
tp19
bS'\xab\xaa\xaa\n\xad\xba\xa1A'
p20
tp21
Rp22
sS'CMSSWFilterEff'
p23
g4
(g17
S'\x93F\x16z\x0ev\x84?'
p24
tp25
Rp26
sS'ntupplizerEff'
p27
g4
(g17
S'sA?\xf1\x9a:\xae?'
p28
tp29
Rp30
ss.