(dp0
S'beta'
p1
cnumpy.core.multiarray
_reconstruct
p2
(cnumpy
ndarray
p3
(I0
tp4
S'b'
p5
tp6
Rp7
(I1
(I2
tp8
cnumpy
dtype
p9
(S'f8'
p10
I0
I1
tp11
Rp12
(I3
S'<'
p13
NNNI-1
I-1
I0
tp14
bI00
S'`\xc0\xe8S=e\xc0?\x7fr\x17\x92\x13\xdf~?'
p15
tp16
bsS'betaVar'
p17
(lp18
g2
(g3
(I0
tp19
g5
tp20
Rp21
(I1
(I2
tp22
g12
I00
S',\xba\teL\xca:\xbf-p\xd6\xe0\xa7\x0f\x0b\xbf'
p23
tp24
bag2
(g3
(I0
tp25
g5
tp26
Rp27
(I1
(I2
tp28
g12
I00
S']\x88Ez\x95\x9ew?\xb7w4+\x0cb\xa7\xbf'
p29
tp30
bas.